; Function Attrs: mustprogress nofree norecurse nosync nounwind willreturn memory(argmem: write) uwtable
define hidden void @EVP_DecodeInit(ptr noundef writeonly captures(none) initializes((0, 8), (88, 96)) %0) local_unnamed_addr #0 {
  %2 = getelementptr inbounds nuw i8, ptr %0, i64 4
  store i32 30, ptr %2, align 4, !tbaa !6
  store i32 0, ptr %0, align 4, !tbaa !11
  %3 = getelementptr inbounds nuw i8, ptr %0, i64 88
  store i32 0, ptr %3, align 4, !tbaa !12
  %4 = getelementptr inbounds nuw i8, ptr %0, i64 92
  store i32 0, ptr %4, align 4, !tbaa !21
  ret void
}